; Function Attrs: mustprogress nofree norecurse nosync nounwind willreturn memory(read, inaccessiblemem: none) uwtable
define hidden range(i32 0, 2) i32 @uv__fd_exists(ptr noundef readonly captures(none) %0, i32 noundef %1) local_unnamed_addr #14 {
  %3 = getelementptr inbounds nuw i8, ptr %0, i64 112
  %4 = load i32, ptr %3, align 8
  %5 = icmp ult i32 %1, %4
  br i1 %5, label %6, label %14

6:                                                ; preds = %2
  %7 = getelementptr inbounds nuw i8, ptr %0, i64 104
  %8 = load ptr, ptr %7, align 8
  %9 = sext i32 %1 to i64
  %10 = getelementptr inbounds ptr, ptr %8, i64 %9
  %11 = load ptr, ptr %10, align 8
  %12 = icmp ne ptr %11, null
  %13 = zext i1 %12 to i32
  br label %14

14:                                               ; preds = %6, %2
  %15 = phi i32 [ 0, %2 ], [ %13, %6 ]
  ret i32 %15
}